target datalayout = "e-m:e-p270:32:32-p271:32:32-p272:64:64-i64:64-i128:128-f80:128-n8:16:32:64-S128"
target triple = "x86_64-pc-linux-gnu"

; Function Attrs: nounwind sspstrong uwtable
define dso_local i64 @rb_str_encode(i64 noundef %0, i64 noundef %1, i32 noundef %2, i64 noundef %3) #0 {
  %5 = alloca i64, align 8
  %6 = alloca i64, align 8
  %7 = alloca i32, align 4
  %8 = alloca i64, align 8
  %9 = alloca i32, align 4
  %10 = alloca ptr, align 8
  %11 = alloca i64, align 8
  %12 = alloca i32, align 4
  store i64 %0, ptr %5, align 8, !tbaa !12
  store i64 %1, ptr %6, align 8, !tbaa !12
  store i32 %2, ptr %7, align 4, !tbaa !29
  store i64 %3, ptr %8, align 8, !tbaa !12
  call void @llvm.lifetime.start.p0(i64 4, ptr %9) #25
  store i32 1, ptr %9, align 4, !tbaa !29
  call void @llvm.lifetime.start.p0(i64 8, ptr %10) #25
  store ptr %6, ptr %10, align 8, !tbaa !80
  call void @llvm.lifetime.start.p0(i64 8, ptr %11) #25
  %13 = load i64, ptr %5, align 8, !tbaa !12
  store i64 %13, ptr %11, align 8, !tbaa !12
  call void @llvm.lifetime.start.p0(i64 4, ptr %12) #25
  %14 = load i32, ptr %9, align 4, !tbaa !29
  %15 = load ptr, ptr %10, align 8, !tbaa !80
  %16 = load i32, ptr %7, align 4, !tbaa !29
  %17 = load i64, ptr %8, align 8, !tbaa !12
  %18 = call i32 @str_transcode0(i32 noundef %14, ptr noundef %15, ptr noundef %11, i32 noundef %16, i64 noundef %17)
  store i32 %18, ptr %12, align 4, !tbaa !29
  %19 = load i64, ptr %11, align 8, !tbaa !12
  %20 = load i64, ptr %5, align 8, !tbaa !12
  %21 = load i32, ptr %12, align 4, !tbaa !29
  %22 = call i64 @encoded_dup(i64 noundef %19, i64 noundef %20, i32 noundef %21)
  call void @llvm.lifetime.end.p0(i64 4, ptr %12) #25
  call void @llvm.lifetime.end.p0(i64 8, ptr %11) #25
  call void @llvm.lifetime.end.p0(i64 8, ptr %10) #25
  call void @llvm.lifetime.end.p0(i64 4, ptr %9) #25
  ret i64 %22
}