; Function Attrs: nounwind sspstrong uwtable
define dso_local i64 @rb_str_encode(i64 noundef %0, i64 noundef %1, i32 noundef %2, i64 noundef %3) local_unnamed_addr #0 {
  %5 = alloca i64, align 8
  %6 = alloca i64, align 8
  store i64 %1, ptr %5, align 8, !tbaa !22
  call void @llvm.lifetime.start.p0(i64 8, ptr nonnull %6) #22
  store i64 %0, ptr %6, align 8, !tbaa !22
  %7 = call fastcc i32 @str_transcode0(i32 noundef 1, ptr noundef nonnull %5, ptr noundef %6, i32 noundef %2, i64 noundef %3)
  %8 = load i64, ptr %6, align 8, !tbaa !22
  %9 = tail call fastcc i64 @encoded_dup(i64 noundef %8, i64 noundef %0, i32 noundef %7)
  call void @llvm.lifetime.end.p0(i64 8, ptr nonnull %6) #22
  ret i64 %9
}